; ModuleID = 'bench/gromacs/original/dnrm2.cpp.ll'
source_filename = "bench/gromacs/original/dnrm2.cpp.ll"
target datalayout = "e-m:e-p270:32:32-p271:32:32-p272:64:64-i64:64-i128:128-f80:128-n8:16:32:64-S128"
target triple = "x86_64-pc-linux-gnu"

; Function Attrs: mustprogress nofree nounwind memory(write, argmem: readwrite) uwtable
define double @dnrm2_(ptr noundef readonly captures(none) %0, ptr noundef readonly captures(none) %1, ptr noundef readonly captures(none) %2) local_unnamed_addr #0 {
  %4 = load i32, ptr %0, align 4
  %5 = load i32, ptr %2, align 4
  %6 = icmp slt i32 %4, 1
  %7 = icmp slt i32 %5, 1
  %or.cond = select i1 %6, i1 true, i1 %7
  br i1 %or.cond, label %38, label %8

8:                                                ; preds = %3
  %9 = icmp eq i32 %4, 1
  br i1 %9, label %10, label %.lr.ph.preheader

10:                                               ; preds = %8
  %11 = load double, ptr %1, align 8
  %12 = fcmp ult double %11, 0.000000e+00
  br i1 %12, label %13, label %38

13:                                               ; preds = %10
  %14 = fneg double %11
  br label %38

.lr.ph.preheader:                                 ; preds = %8
  %15 = add nsw i32 %4, -1
  %16 = mul nsw i32 %15, %5
  %17 = add nuw nsw i32 %16, 1
  %invariant.gep = getelementptr i8, ptr %1, i64 -8
  %18 = zext nneg i32 %5 to i64
  br label %.lr.ph

.lr.ph:                                           ; preds = %.lr.ph.preheader, %34
  %indvars.iv = phi i64 [ 1, %.lr.ph.preheader ], [ %indvars.iv.next, %34 ]
  %.03950 = phi double [ 1.000000e+00, %.lr.ph.preheader ], [ %.1, %34 ]
  %.04049 = phi double [ 0.000000e+00, %.lr.ph.preheader ], [ %.141, %34 ]
  %gep = getelementptr double, ptr %invariant.gep, i64 %indvars.iv
  %19 = load double, ptr %gep, align 8
  %20 = tail call noundef double @llvm.fabs.f64(double %19)
  %21 = fcmp ogt double %20, 0x10000000000000
  br i1 %21, label %22, label %34

22:                                               ; preds = %.lr.ph
  %23 = fcmp oge double %19, 0.000000e+00
  %24 = fneg double %19
  %25 = select i1 %23, double %19, double %24
  %26 = fcmp olt double %.04049, %25
  br i1 %26, label %27, label %31

27:                                               ; preds = %22
  %28 = fdiv double %.04049, %25
  %29 = fmul double %28, %28
  %30 = tail call double @llvm.fmuladd.f64(double %.03950, double %29, double 1.000000e+00)
  br label %34

31:                                               ; preds = %22
  %32 = fdiv double %25, %.04049
  %33 = tail call double @llvm.fmuladd.f64(double %32, double %32, double %.03950)
  br label %34

34:                                               ; preds = %.lr.ph, %31, %27
  %.141 = phi double [ %25, %27 ], [ %.04049, %31 ], [ %.04049, %.lr.ph ]
  %.1 = phi double [ %30, %27 ], [ %33, %31 ], [ %.03950, %.lr.ph ]
  %indvars.iv.next = add nuw nsw i64 %indvars.iv, %18
  %35 = trunc nuw i64 %indvars.iv.next to i32
  %.not = icmp slt i32 %17, %35
  br i1 %.not, label %._crit_edge, label %.lr.ph, !llvm.loop !4

._crit_edge:                                      ; preds = %34
  %36 = tail call double @sqrt(double noundef %.1) #3
  %37 = fmul double %.141, %36
  br label %38

38:                                               ; preds = %10, %3, %._crit_edge, %13
  %.0 = phi double [ %14, %13 ], [ %37, %._crit_edge ], [ 0.000000e+00, %3 ], [ %11, %10 ]
  ret double %.0
}

; Function Attrs: mustprogress nocallback nofree nosync nounwind speculatable willreturn memory(none)
declare double @llvm.fmuladd.f64(double, double, double) #1

; Function Attrs: mustprogress nofree nounwind willreturn memory(write)
declare double @sqrt(double noundef) local_unnamed_addr #2

; Function Attrs: mustprogress nocallback nofree nosync nounwind speculatable willreturn memory(none)
declare double @llvm.fabs.f64(double) #1


!llvm.module.flags = !{!0, !1, !2, !3}

!0 = !{i32 1, !"wchar_size", i32 4}
!1 = !{i32 8, !"PIC Level", i32 2}
!2 = !{i32 7, !"uwtable", i32 2}
!3 = !{i32 7, !"frame-pointer", i32 2}
!4 = distinct !{!4, !5}
!5 = !{!"llvm.loop.mustprogress"}
